target datalayout = "e-m:e-p270:32:32-p271:32:32-p272:64:64-i64:64-i128:128-f80:128-n8:16:32:64-S128"
target triple = "x86_64-pc-linux-gnu"

%union.pthread_mutex_t = type { %struct.__pthread_mutex_s }
%struct.__pthread_mutex_s = type { i32, i32, i32, i32, i32, i16, i16, %struct.__pthread_internal_list }
%struct.__pthread_internal_list = type { ptr, ptr }
%struct.slurm_bb_ops = type { ptr, ptr, ptr, ptr, ptr, ptr, ptr, ptr, ptr, ptr, ptr, ptr, ptr, ptr, ptr, ptr, ptr, ptr, ptr, ptr }

@g_context_lock = internal global %union.pthread_mutex_t zeroinitializer, align 8
@.str.1 = private unnamed_addr constant [29 x i8] c"%s: pthread_mutex_lock(): %m\00", align 1
@g_context_cnt = internal global i32 -1, align 4
@ops = internal global ptr null, align 8
@.str.8 = private unnamed_addr constant [31 x i8] c"%s: pthread_mutex_unlock(): %m\00", align 1
@__func__.bb_g_run_script = private unnamed_addr constant [16 x i8] c"bb_g_run_script\00", align 1

; Function Attrs: nounwind uwtable
define dso_local i32 @bb_g_run_script(ptr noundef %0, i32 noundef %1, i32 noundef %2, ptr noundef %3, ptr noundef %4, ptr noundef %5) #0 {
  %7 = alloca ptr, align 8
  %8 = alloca i32, align 4
  %9 = alloca i32, align 4
  %10 = alloca ptr, align 8
  %11 = alloca ptr, align 8
  %12 = alloca ptr, align 8
  %13 = alloca i32, align 4
  %14 = alloca i32, align 4
  %15 = alloca i32, align 4
  %16 = alloca i32, align 4
  %17 = alloca i32, align 4
  store ptr %0, ptr %7, align 8
  store i32 %1, ptr %8, align 4
  store i32 %2, ptr %9, align 4
  store ptr %3, ptr %10, align 8
  store ptr %4, ptr %11, align 8
  store ptr %5, ptr %12, align 8
  call void @llvm.lifetime.start.p0(i64 4, ptr %13) #7
  call void @llvm.lifetime.start.p0(i64 4, ptr %14) #7
  store i32 0, ptr %14, align 4
  call void @llvm.lifetime.start.p0(i64 4, ptr %15) #7
  br label %18

18:                                               ; preds = %6
  call void @llvm.lifetime.start.p0(i64 4, ptr %16) #7
  %19 = call i32 @pthread_mutex_lock(ptr noundef @g_context_lock) #7
  store i32 %19, ptr %16, align 4
  %20 = load i32, ptr %16, align 4
  %21 = icmp ne i32 %20, 0
  br i1 %21, label %22, label %25

22:                                               ; preds = %18
  %23 = load i32, ptr %16, align 4
  %24 = call ptr @__errno_location() #8
  store i32 %23, ptr %24, align 4
  call void (ptr, ...) @fatal_abort(ptr noundef @.str.1, ptr noundef @__func__.bb_g_run_script) #9
  unreachable

25:                                               ; preds = %18
  call void @llvm.lifetime.end.p0(i64 4, ptr %16) #7
  br label %26

26:                                               ; preds = %25
  br label %27

27:                                               ; preds = %26
  store i32 0, ptr %13, align 4
  br label %28

28:                                               ; preds = %51, %27
  %29 = load i32, ptr %13, align 4
  %30 = load i32, ptr @g_context_cnt, align 4
  %31 = icmp slt i32 %29, %30
  br i1 %31, label %32, label %54

32:                                               ; preds = %28
  %33 = load ptr, ptr @ops, align 8
  %34 = load i32, ptr %13, align 4
  %35 = sext i32 %34 to i64
  %36 = getelementptr inbounds %struct.slurm_bb_ops, ptr %33, i64 %35
  %37 = getelementptr inbounds nuw %struct.slurm_bb_ops, ptr %36, i32 0, i32 18
  %38 = load ptr, ptr %37, align 8
  %39 = load ptr, ptr %7, align 8
  %40 = load i32, ptr %8, align 4
  %41 = load i32, ptr %9, align 4
  %42 = load ptr, ptr %10, align 8
  %43 = load ptr, ptr %11, align 8
  %44 = load ptr, ptr %12, align 8
  %45 = call i32 %38(ptr noundef %39, i32 noundef %40, i32 noundef %41, ptr noundef %42, ptr noundef %43, ptr noundef %44)
  store i32 %45, ptr %15, align 4
  %46 = load i32, ptr %15, align 4
  %47 = icmp ne i32 %46, 0
  br i1 %47, label %48, label %50

48:                                               ; preds = %32
  %49 = load i32, ptr %15, align 4
  store i32 %49, ptr %14, align 4
  br label %54

50:                                               ; preds = %32
  br label %51

51:                                               ; preds = %50
  %52 = load i32, ptr %13, align 4
  %53 = add nsw i32 %52, 1
  store i32 %53, ptr %13, align 4
  br label %28, !llvm.loop !32

54:                                               ; preds = %48, %28
  br label %55

55:                                               ; preds = %54
  call void @llvm.lifetime.start.p0(i64 4, ptr %17) #7
  %56 = call i32 @pthread_mutex_unlock(ptr noundef @g_context_lock) #7
  store i32 %56, ptr %17, align 4
  %57 = load i32, ptr %17, align 4
  %58 = icmp ne i32 %57, 0
  br i1 %58, label %59, label %62

59:                                               ; preds = %55
  %60 = load i32, ptr %17, align 4
  %61 = call ptr @__errno_location() #8
  store i32 %60, ptr %61, align 4
  call void (ptr, ...) @fatal_abort(ptr noundef @.str.8, ptr noundef @__func__.bb_g_run_script) #9
  unreachable

62:                                               ; preds = %55
  call void @llvm.lifetime.end.p0(i64 4, ptr %17) #7
  br label %63

63:                                               ; preds = %62
  br label %64

64:                                               ; preds = %63
  %65 = load i32, ptr %14, align 4
  call void @llvm.lifetime.end.p0(i64 4, ptr %15) #7
  call void @llvm.lifetime.end.p0(i64 4, ptr %14) #7
  call void @llvm.lifetime.end.p0(i64 4, ptr %13) #7
  ret i32 %65
}