; Function Attrs: nounwind uwtable
define dso_local i32 @bb_g_run_script(ptr noundef %0, i32 noundef %1, i32 noundef %2, ptr noundef %3, ptr noundef %4, ptr noundef %5) local_unnamed_addr #0 {
  %7 = tail call i32 @pthread_mutex_lock(ptr noundef nonnull @g_context_lock) #11
  %.not = icmp eq i32 %7, 0
  br i1 %.not, label %.preheader, label %10

.preheader:                                       ; preds = %6
  %8 = load i32, ptr @g_context_cnt, align 4
  %9 = icmp sgt i32 %8, 0
  br i1 %9, label %.lr.ph, label %._crit_edge

10:                                               ; preds = %6
  %11 = tail call ptr @__errno_location() #12
  store i32 %7, ptr %11, align 4
  tail call void (ptr, ...) @fatal_abort(ptr noundef nonnull @.str.1, ptr noundef nonnull @__func__.bb_g_run_script) #13
  unreachable

12:                                               ; preds = %.lr.ph
  %indvars.iv.next = add nuw nsw i64 %indvars.iv, 1
  %13 = load i32, ptr @g_context_cnt, align 4
  %14 = sext i32 %13 to i64
  %15 = icmp slt i64 %indvars.iv.next, %14
  br i1 %15, label %.lr.ph, label %._crit_edge, !llvm.loop !30

.lr.ph:                                           ; preds = %.preheader, %12
  %indvars.iv = phi i64 [ %indvars.iv.next, %12 ], [ 0, %.preheader ]
  %16 = load ptr, ptr @ops, align 8
  %17 = getelementptr inbounds nuw %struct.slurm_bb_ops, ptr %16, i64 %indvars.iv, i32 18
  %18 = load ptr, ptr %17, align 8
  %19 = tail call i32 %18(ptr noundef %0, i32 noundef %1, i32 noundef %2, ptr noundef %3, ptr noundef %4, ptr noundef %5) #11
  %.not19 = icmp eq i32 %19, 0
  br i1 %.not19, label %12, label %._crit_edge

._crit_edge:                                      ; preds = %12, %.lr.ph, %.preheader
  %.015 = phi i32 [ 0, %.preheader ], [ %19, %.lr.ph ], [ 0, %12 ]
  %20 = tail call i32 @pthread_mutex_unlock(ptr noundef nonnull @g_context_lock) #11
  %.not20 = icmp eq i32 %20, 0
  br i1 %.not20, label %23, label %21

21:                                               ; preds = %._crit_edge
  %22 = tail call ptr @__errno_location() #12
  store i32 %20, ptr %22, align 4
  tail call void (ptr, ...) @fatal_abort(ptr noundef nonnull @.str.8, ptr noundef nonnull @__func__.bb_g_run_script) #13
  unreachable

23:                                               ; preds = %._crit_edge
  ret i32 %.015
}